target datalayout = "e-m:e-p270:32:32-p271:32:32-p272:64:64-i64:64-i128:128-f80:128-n8:16:32:64-S128"
target triple = "x86_64-pc-linux-gnu"

%struct.hwloc_infos_s = type { ptr, i32, i32 }
%struct.hwloc_obj = type { i32, ptr, i32, ptr, i64, ptr, i32, i32, ptr, ptr, ptr, i32, ptr, ptr, i32, ptr, ptr, ptr, i32, i32, ptr, i32, ptr, i32, ptr, ptr, ptr, ptr, ptr, %struct.hwloc_infos_s, ptr, i64 }
%struct.hwloc_synthetic_backend_data_s = type { ptr, i64, %struct.hwloc_synthetic_indexes_s, [128 x %struct.hwloc_synthetic_level_data_s] }
%struct.hwloc_synthetic_indexes_s = type { ptr, i64, ptr, i32 }
%struct.hwloc_synthetic_level_data_s = type { i32, i64, %struct.hwloc_synthetic_attr_s, %struct.hwloc_synthetic_indexes_s, ptr }
%struct.hwloc_synthetic_attr_s = type { i32, i32, i32, i64, i64 }

@.str.4 = private unnamed_addr constant [10 x i8] c"synthetic\00", align 1
@.str.63 = private unnamed_addr constant [18 x i8] c"synthetic:mscache\00", align 1

; Function Attrs: inlinehint nounwind uwtable
define internal i32 @hwloc__obj_type_is_cache(i32 noundef %0) #5 {
  %2 = alloca i32, align 4
  store i32 %0, ptr %2, align 4, !tbaa !14
  %3 = load i32, ptr %2, align 4, !tbaa !14
  %4 = icmp uge i32 %3, 5
  br i1 %4, label %5, label %8

5:                                                ; preds = %1
  %6 = load i32, ptr %2, align 4, !tbaa !14
  %7 = icmp ule i32 %6, 12
  br label %8

8:                                                ; preds = %5, %1
  %9 = phi i1 [ false, %1 ], [ %7, %5 ]
  %10 = zext i1 %9 to i32
  ret i32 %10
}

; Function Attrs: inlinehint nounwind uwtable
define internal i32 @hwloc_filter_check_keep_object_type(ptr noundef %0, i32 noundef %1) #5 {
  %3 = alloca ptr, align 8
  %4 = alloca i32, align 4
  %5 = alloca i32, align 4
  store ptr %0, ptr %3, align 8, !tbaa !3
  store i32 %1, ptr %4, align 4, !tbaa !14
  call void @llvm.lifetime.start.p0(i64 4, ptr %5) #13
  store i32 1, ptr %5, align 4, !tbaa !14
  %6 = load ptr, ptr %3, align 8, !tbaa !3
  %7 = load i32, ptr %4, align 4, !tbaa !14
  %8 = call i32 @hwloc_topology_get_type_filter(ptr noundef %6, i32 noundef %7, ptr noundef %5)
  %9 = load i32, ptr %5, align 4, !tbaa !14
  %10 = icmp eq i32 %9, 1
  %11 = select i1 %10, i32 0, i32 1
  call void @llvm.lifetime.end.p0(i64 4, ptr %5) #13
  ret i32 %11
}

; Function Attrs: nounwind uwtable
define internal i32 @hwloc_synthetic_next_index(ptr noundef %0, i32 noundef %1) #0 {
  %3 = alloca ptr, align 8
  %4 = alloca i32, align 4
  %5 = alloca i32, align 4
  store ptr %0, ptr %3, align 8, !tbaa !146
  store i32 %1, ptr %4, align 4, !tbaa !14
  call void @llvm.lifetime.start.p0(i64 4, ptr %5) #13
  %6 = load ptr, ptr %3, align 8, !tbaa !146
  %7 = getelementptr inbounds nuw %struct.hwloc_synthetic_indexes_s, ptr %6, i32 0, i32 3
  %8 = load i32, ptr %7, align 8, !tbaa !179
  %9 = add i32 %8, 1
  store i32 %9, ptr %7, align 8, !tbaa !179
  store i32 %8, ptr %5, align 4, !tbaa !14
  %10 = load ptr, ptr %3, align 8, !tbaa !146
  %11 = getelementptr inbounds nuw %struct.hwloc_synthetic_indexes_s, ptr %10, i32 0, i32 2
  %12 = load ptr, ptr %11, align 8, !tbaa !156
  %13 = icmp ne ptr %12, null
  br i1 %13, label %14, label %22

14:                                               ; preds = %2
  %15 = load ptr, ptr %3, align 8, !tbaa !146
  %16 = getelementptr inbounds nuw %struct.hwloc_synthetic_indexes_s, ptr %15, i32 0, i32 2
  %17 = load ptr, ptr %16, align 8, !tbaa !156
  %18 = load i32, ptr %5, align 4, !tbaa !14
  %19 = zext i32 %18 to i64
  %20 = getelementptr inbounds nuw i32, ptr %17, i64 %19
  %21 = load i32, ptr %20, align 4, !tbaa !14
  store i32 %21, ptr %5, align 4, !tbaa !14
  br label %31

22:                                               ; preds = %2
  %23 = load i32, ptr %4, align 4, !tbaa !14
  %24 = call i32 @hwloc__obj_type_is_cache(i32 noundef %23)
  %25 = icmp ne i32 %24, 0
  br i1 %25, label %29, label %26

26:                                               ; preds = %22
  %27 = load i32, ptr %4, align 4, !tbaa !14
  %28 = icmp eq i32 %27, 13
  br i1 %28, label %29, label %30

29:                                               ; preds = %26, %22
  store i32 -1, ptr %5, align 4, !tbaa !14
  br label %30

30:                                               ; preds = %29, %26
  br label %31

31:                                               ; preds = %30, %14
  %32 = load i32, ptr %5, align 4, !tbaa !14
  call void @llvm.lifetime.end.p0(i64 4, ptr %5) #13
  ret i32 %32
}

; Function Attrs: nounwind uwtable
define internal void @hwloc__look_synthetic(ptr noundef %0, ptr noundef %1, i32 noundef %2, ptr noundef %3) #0 {
  %5 = alloca ptr, align 8
  %6 = alloca ptr, align 8
  %7 = alloca i32, align 4
  %8 = alloca ptr, align 8
  %9 = alloca ptr, align 8
  %10 = alloca i32, align 4
  %11 = alloca ptr, align 8
  %12 = alloca i32, align 4
  %13 = alloca ptr, align 8
  %14 = alloca i32, align 4
  %15 = alloca ptr, align 8
  store ptr %0, ptr %5, align 8, !tbaa !3
  store ptr %1, ptr %6, align 8, !tbaa !88
  store i32 %2, ptr %7, align 4, !tbaa !14
  store ptr %3, ptr %8, align 8, !tbaa !57
  call void @llvm.lifetime.start.p0(i64 8, ptr %9) #13
  call void @llvm.lifetime.start.p0(i64 4, ptr %10) #13
  call void @llvm.lifetime.start.p0(i64 8, ptr %11) #13
  %16 = load ptr, ptr %6, align 8, !tbaa !88
  %17 = getelementptr inbounds nuw %struct.hwloc_synthetic_backend_data_s, ptr %16, i32 0, i32 3
  %18 = load i32, ptr %7, align 4, !tbaa !14
  %19 = sext i32 %18 to i64
  %20 = getelementptr inbounds [128 x %struct.hwloc_synthetic_level_data_s], ptr %17, i64 0, i64 %19
  store ptr %20, ptr %11, align 8, !tbaa !127
  call void @llvm.lifetime.start.p0(i64 4, ptr %12) #13
  %21 = load ptr, ptr %11, align 8, !tbaa !127
  %22 = getelementptr inbounds nuw %struct.hwloc_synthetic_level_data_s, ptr %21, i32 0, i32 2
  %23 = getelementptr inbounds nuw %struct.hwloc_synthetic_attr_s, ptr %22, i32 0, i32 0
  %24 = load i32, ptr %23, align 8, !tbaa !102
  store i32 %24, ptr %12, align 4, !tbaa !14
  call void @llvm.lifetime.start.p0(i64 8, ptr %13) #13
  call void @llvm.lifetime.start.p0(i64 4, ptr %14) #13
  %25 = load ptr, ptr %11, align 8, !tbaa !127
  %26 = getelementptr inbounds nuw %struct.hwloc_synthetic_level_data_s, ptr %25, i32 0, i32 3
  %27 = load i32, ptr %12, align 4, !tbaa !14
  %28 = call i32 @hwloc_synthetic_next_index(ptr noundef %26, i32 noundef %27)
  store i32 %28, ptr %14, align 4, !tbaa !14
  %29 = call noalias ptr @hwloc_bitmap_alloc()
  store ptr %29, ptr %13, align 8, !tbaa !57
  %30 = load ptr, ptr %11, align 8, !tbaa !127
  %31 = getelementptr inbounds nuw %struct.hwloc_synthetic_level_data_s, ptr %30, i32 0, i32 0
  %32 = load i32, ptr %31, align 8, !tbaa !109
  %33 = icmp ne i32 %32, 0
  br i1 %33, label %38, label %34

34:                                               ; preds = %4
  %35 = load ptr, ptr %13, align 8, !tbaa !57
  %36 = load i32, ptr %14, align 4, !tbaa !14
  %37 = call i32 @hwloc_bitmap_set(ptr noundef %35, i32 noundef %36)
  br label %55

38:                                               ; preds = %4
  store i32 0, ptr %10, align 4, !tbaa !14
  br label %39

39:                                               ; preds = %51, %38
  %40 = load i32, ptr %10, align 4, !tbaa !14
  %41 = load ptr, ptr %11, align 8, !tbaa !127
  %42 = getelementptr inbounds nuw %struct.hwloc_synthetic_level_data_s, ptr %41, i32 0, i32 0
  %43 = load i32, ptr %42, align 8, !tbaa !109
  %44 = icmp ult i32 %40, %43
  br i1 %44, label %45, label %54

45:                                               ; preds = %39
  %46 = load ptr, ptr %5, align 8, !tbaa !3
  %47 = load ptr, ptr %6, align 8, !tbaa !88
  %48 = load i32, ptr %7, align 4, !tbaa !14
  %49 = add nsw i32 %48, 1
  %50 = load ptr, ptr %13, align 8, !tbaa !57
  call void @hwloc__look_synthetic(ptr noundef %46, ptr noundef %47, i32 noundef %49, ptr noundef %50)
  br label %51

51:                                               ; preds = %45
  %52 = load i32, ptr %10, align 4, !tbaa !14
  %53 = add i32 %52, 1
  store i32 %53, ptr %10, align 4, !tbaa !14
  br label %39, !llvm.loop !177

54:                                               ; preds = %39
  br label %55

55:                                               ; preds = %54, %34
  %56 = load ptr, ptr %8, align 8, !tbaa !57
  %57 = load ptr, ptr %8, align 8, !tbaa !57
  %58 = load ptr, ptr %13, align 8, !tbaa !57
  %59 = call i32 @hwloc_bitmap_or(ptr noundef %56, ptr noundef %57, ptr noundef %58)
  %60 = load ptr, ptr %5, align 8, !tbaa !3
  %61 = load i32, ptr %12, align 4, !tbaa !14
  %62 = call i32 @hwloc_filter_check_keep_object_type(ptr noundef %60, i32 noundef %61)
  %63 = icmp ne i32 %62, 0
  br i1 %63, label %64, label %119

64:                                               ; preds = %55
  %65 = load ptr, ptr %5, align 8, !tbaa !3
  %66 = load i32, ptr %12, align 4, !tbaa !14
  %67 = load i32, ptr %14, align 4, !tbaa !14
  %68 = call ptr @hwloc_alloc_setup_object(ptr noundef %65, i32 noundef %66, i32 noundef %67)
  store ptr %68, ptr %9, align 8, !tbaa !12
  %69 = load ptr, ptr %13, align 8, !tbaa !57
  %70 = call noalias ptr @hwloc_bitmap_dup(ptr noundef %69)
  %71 = load ptr, ptr %9, align 8, !tbaa !12
  %72 = getelementptr inbounds nuw %struct.hwloc_obj, ptr %71, i32 0, i32 25
  store ptr %70, ptr %72, align 8, !tbaa !178
  %73 = load i32, ptr %12, align 4, !tbaa !14
  %74 = icmp eq i32 %73, 14
  br i1 %74, label %75, label %84

75:                                               ; preds = %64
  %76 = call noalias ptr @hwloc_bitmap_alloc()
  %77 = load ptr, ptr %9, align 8, !tbaa !12
  %78 = getelementptr inbounds nuw %struct.hwloc_obj, ptr %77, i32 0, i32 27
  store ptr %76, ptr %78, align 8, !tbaa !56
  %79 = load ptr, ptr %9, align 8, !tbaa !12
  %80 = getelementptr inbounds nuw %struct.hwloc_obj, ptr %79, i32 0, i32 27
  %81 = load ptr, ptr %80, align 8, !tbaa !56
  %82 = load i32, ptr %14, align 4, !tbaa !14
  %83 = call i32 @hwloc_bitmap_set(ptr noundef %81, i32 noundef %82)
  br label %84

84:                                               ; preds = %75, %64
  %85 = load ptr, ptr %11, align 8, !tbaa !127
  %86 = getelementptr inbounds nuw %struct.hwloc_synthetic_level_data_s, ptr %85, i32 0, i32 2
  %87 = load ptr, ptr %9, align 8, !tbaa !12
  call void @hwloc_synthetic_set_attr(ptr noundef %86, ptr noundef %87)
  %88 = load ptr, ptr %5, align 8, !tbaa !3
  %89 = load ptr, ptr %9, align 8, !tbaa !12
  %90 = call ptr @hwloc__insert_object_by_cpuset(ptr noundef %88, ptr noundef null, ptr noundef %89, ptr noundef @.str.4)
  %91 = load i32, ptr %12, align 4, !tbaa !14
  %92 = icmp eq i32 %91, 14
  br i1 %92, label %93, label %118

93:                                               ; preds = %84
  %94 = load ptr, ptr %11, align 8, !tbaa !127
  %95 = getelementptr inbounds nuw %struct.hwloc_synthetic_level_data_s, ptr %94, i32 0, i32 2
  %96 = getelementptr inbounds nuw %struct.hwloc_synthetic_attr_s, ptr %95, i32 0, i32 4
  %97 = load i64, ptr %96, align 8, !tbaa !106
  %98 = icmp ne i64 %97, 0
  br i1 %98, label %99, label %118

99:                                               ; preds = %93
  call void @llvm.lifetime.start.p0(i64 8, ptr %15) #13
  %100 = load ptr, ptr %5, align 8, !tbaa !3
  %101 = call ptr @hwloc_alloc_setup_object(ptr noundef %100, i32 noundef 15, i32 noundef -1)
  store ptr %101, ptr %15, align 8, !tbaa !12
  %102 = load ptr, ptr %13, align 8, !tbaa !57
  %103 = call noalias ptr @hwloc_bitmap_dup(ptr noundef %102)
  %104 = load ptr, ptr %15, align 8, !tbaa !12
  %105 = getelementptr inbounds nuw %struct.hwloc_obj, ptr %104, i32 0, i32 25
  store ptr %103, ptr %105, align 8, !tbaa !178
  %106 = load ptr, ptr %9, align 8, !tbaa !12
  %107 = getelementptr inbounds nuw %struct.hwloc_obj, ptr %106, i32 0, i32 27
  %108 = load ptr, ptr %107, align 8, !tbaa !56
  %109 = call noalias ptr @hwloc_bitmap_dup(ptr noundef %108)
  %110 = load ptr, ptr %15, align 8, !tbaa !12
  %111 = getelementptr inbounds nuw %struct.hwloc_obj, ptr %110, i32 0, i32 27
  store ptr %109, ptr %111, align 8, !tbaa !56
  %112 = load ptr, ptr %11, align 8, !tbaa !127
  %113 = getelementptr inbounds nuw %struct.hwloc_synthetic_level_data_s, ptr %112, i32 0, i32 2
  %114 = load ptr, ptr %15, align 8, !tbaa !12
  call void @hwloc_synthetic_set_attr(ptr noundef %113, ptr noundef %114)
  %115 = load ptr, ptr %5, align 8, !tbaa !3
  %116 = load ptr, ptr %15, align 8, !tbaa !12
  %117 = call ptr @hwloc__insert_object_by_cpuset(ptr noundef %115, ptr noundef null, ptr noundef %116, ptr noundef @.str.63)
  call void @llvm.lifetime.end.p0(i64 8, ptr %15) #13
  br label %118

118:                                              ; preds = %99, %93, %84
  br label %119

119:                                              ; preds = %118, %55
  %120 = load ptr, ptr %5, align 8, !tbaa !3
  %121 = load ptr, ptr %6, align 8, !tbaa !88
  %122 = load ptr, ptr %11, align 8, !tbaa !127
  %123 = getelementptr inbounds nuw %struct.hwloc_synthetic_level_data_s, ptr %122, i32 0, i32 4
  %124 = load ptr, ptr %123, align 8, !tbaa !107
  %125 = load ptr, ptr %13, align 8, !tbaa !57
  call void @hwloc_synthetic_insert_attached(ptr noundef %120, ptr noundef %121, ptr noundef %124, ptr noundef %125)
  %126 = load ptr, ptr %13, align 8, !tbaa !57
  call void @hwloc_bitmap_free(ptr noundef %126)
  call void @llvm.lifetime.end.p0(i64 4, ptr %14) #13
  call void @llvm.lifetime.end.p0(i64 8, ptr %13) #13
  call void @llvm.lifetime.end.p0(i64 4, ptr %12) #13
  call void @llvm.lifetime.end.p0(i64 8, ptr %11) #13
  call void @llvm.lifetime.end.p0(i64 4, ptr %10) #13
  call void @llvm.lifetime.end.p0(i64 8, ptr %9) #13
  ret void
}