; Function Attrs: nounwind uwtable
define internal fastcc void @hwloc__look_synthetic(ptr noundef %0, ptr noundef captures(none) %1, i32 noundef %2, ptr noundef %3) unnamed_addr #0 {
  %5 = alloca i32, align 4
  %6 = getelementptr inbounds nuw i8, ptr %1, i64 48
  %7 = sext i32 %2 to i64
  %8 = getelementptr inbounds [128 x %struct.hwloc_synthetic_level_data_s], ptr %6, i64 0, i64 %7
  %9 = getelementptr inbounds nuw i8, ptr %8, i64 16
  %10 = load i32, ptr %9, align 8, !tbaa !90
  %11 = getelementptr inbounds nuw i8, ptr %8, i64 72
  %12 = load i32, ptr %11, align 8, !tbaa !150
  %13 = add i32 %12, 1
  store i32 %13, ptr %11, align 8, !tbaa !150
  %14 = getelementptr inbounds nuw i8, ptr %8, i64 64
  %15 = load ptr, ptr %14, align 8, !tbaa !137
  %.not.i = icmp eq ptr %15, null
  br i1 %.not.i, label %20, label %16

16:                                               ; preds = %4
  %17 = zext i32 %12 to i64
  %18 = getelementptr inbounds nuw i32, ptr %15, i64 %17
  %19 = load i32, ptr %18, align 4, !tbaa !58
  br label %hwloc_synthetic_next_index.exit

20:                                               ; preds = %4
  %21 = add i32 %10, -5
  %or.cond.i = icmp ult i32 %21, 9
  %spec.select.i = select i1 %or.cond.i, i32 -1, i32 %12
  br label %hwloc_synthetic_next_index.exit

hwloc_synthetic_next_index.exit:                  ; preds = %16, %20
  %.0.i = phi i32 [ %19, %16 ], [ %spec.select.i, %20 ]
  %22 = tail call noalias ptr @hwloc_bitmap_alloc() #22
  %23 = load i32, ptr %8, align 8, !tbaa !94
  %.not = icmp eq i32 %23, 0
  br i1 %.not, label %25, label %.lr.ph

.lr.ph:                                           ; preds = %hwloc_synthetic_next_index.exit
  %24 = add nsw i32 %2, 1
  br label %27

25:                                               ; preds = %hwloc_synthetic_next_index.exit
  %26 = tail call i32 @hwloc_bitmap_set(ptr noundef %22, i32 noundef %.0.i) #22
  br label %.loopexit

27:                                               ; preds = %.lr.ph, %27
  %.051 = phi i32 [ 0, %.lr.ph ], [ %28, %27 ]
  tail call fastcc void @hwloc__look_synthetic(ptr noundef %0, ptr noundef nonnull %1, i32 noundef %24, ptr noundef %22)
  %28 = add nuw i32 %.051, 1
  %29 = load i32, ptr %8, align 8, !tbaa !94
  %30 = icmp ult i32 %28, %29
  br i1 %30, label %27, label %.loopexit, !llvm.loop !151

.loopexit:                                        ; preds = %27, %25
  %31 = tail call i32 @hwloc_bitmap_or(ptr noundef %3, ptr noundef %3, ptr noundef %22) #22
  call void @llvm.lifetime.start.p0(i64 4, ptr nonnull %5) #22
  store i32 1, ptr %5, align 4, !tbaa !58
  %32 = call i32 @hwloc_topology_get_type_filter(ptr noundef %0, i32 noundef %10, ptr noundef nonnull %5) #22
  %33 = load i32, ptr %5, align 4, !tbaa !58
  %.not50 = icmp eq i32 %33, 1
  call void @llvm.lifetime.end.p0(i64 4, ptr nonnull %5) #22
  br i1 %.not50, label %55, label %34

34:                                               ; preds = %.loopexit
  %35 = call ptr @hwloc_alloc_setup_object(ptr noundef %0, i32 noundef %10, i32 noundef %.0.i) #22
  %36 = call noalias ptr @hwloc_bitmap_dup(ptr noundef %22) #22
  %37 = getelementptr inbounds nuw i8, ptr %35, i64 184
  store ptr %36, ptr %37, align 8, !tbaa !152
  %38 = icmp eq i32 %10, 14
  br i1 %38, label %39, label %.critedge

39:                                               ; preds = %34
  %40 = call noalias ptr @hwloc_bitmap_alloc() #22
  %41 = getelementptr inbounds nuw i8, ptr %35, i64 200
  store ptr %40, ptr %41, align 8, !tbaa !39
  %42 = call i32 @hwloc_bitmap_set(ptr noundef %40, i32 noundef %.0.i) #22
  call fastcc void @hwloc_synthetic_set_attr(ptr noundef nonnull %9, ptr noundef nonnull %35)
  %43 = call ptr @hwloc__insert_object_by_cpuset(ptr noundef %0, ptr noundef null, ptr noundef nonnull %35, ptr noundef nonnull @.str.4) #22
  %44 = getelementptr inbounds nuw i8, ptr %8, i64 40
  %45 = load i64, ptr %44, align 8, !tbaa !153
  %.not49 = icmp eq i64 %45, 0
  br i1 %.not49, label %55, label %46

46:                                               ; preds = %39
  %47 = call ptr @hwloc_alloc_setup_object(ptr noundef %0, i32 noundef 15, i32 noundef -1) #22
  %48 = call noalias ptr @hwloc_bitmap_dup(ptr noundef %22) #22
  %49 = getelementptr inbounds nuw i8, ptr %47, i64 184
  store ptr %48, ptr %49, align 8, !tbaa !152
  %50 = load ptr, ptr %41, align 8, !tbaa !39
  %51 = call noalias ptr @hwloc_bitmap_dup(ptr noundef %50) #22
  %52 = getelementptr inbounds nuw i8, ptr %47, i64 200
  store ptr %51, ptr %52, align 8, !tbaa !39
  call fastcc void @hwloc_synthetic_set_attr(ptr noundef nonnull %9, ptr noundef %47)
  %53 = call ptr @hwloc__insert_object_by_cpuset(ptr noundef %0, ptr noundef null, ptr noundef %47, ptr noundef nonnull @.str.63) #22
  br label %55

.critedge:                                        ; preds = %34
  call fastcc void @hwloc_synthetic_set_attr(ptr noundef nonnull %9, ptr noundef nonnull %35)
  %54 = call ptr @hwloc__insert_object_by_cpuset(ptr noundef %0, ptr noundef null, ptr noundef nonnull %35, ptr noundef nonnull @.str.4) #22
  br label %55

55:                                               ; preds = %.critedge, %39, %46, %.loopexit
  %56 = getelementptr inbounds nuw i8, ptr %8, i64 80
  %57 = load ptr, ptr %56, align 8, !tbaa !92
  call fastcc void @hwloc_synthetic_insert_attached(ptr noundef %0, ptr noundef nonnull %1, ptr noundef %57, ptr noundef %22)
  call void @hwloc_bitmap_free(ptr noundef %22) #22
  ret void
}